target datalayout = "e-m:e-p270:32:32-p271:32:32-p272:64:64-i64:64-i128:128-f80:128-n8:16:32:64-S128"
target triple = "x86_64-pc-linux-gnu"

@under_uid_switch = internal global i32 0, align 4
@rb_eRuntimeError = external global i64, align 8
@.str.228 = private unnamed_addr constant [76 x i8] c"can't handle UID while evaluating block given to Process::UID.switch method\00", align 1

; Function Attrs: nounwind sspstrong uwtable
define internal void @check_uid_switch() #0 {
  %1 = load i32, ptr @under_uid_switch, align 4, !tbaa !34
  %2 = icmp ne i32 %1, 0
  br i1 %2, label %3, label %5

3:                                                ; preds = %0
  %4 = load i64, ptr @rb_eRuntimeError, align 8, !tbaa !35
  call void (i64, ptr, ...) @rb_raise(i64 noundef %4, ptr noundef @.str.228) #30
  unreachable

5:                                                ; preds = %0
  ret void
}

; Function Attrs: nounwind sspstrong uwtable
define internal i64 @p_sys_setreuid(i64 noundef %0, i64 noundef %1, i64 noundef %2) #0 {
  %4 = alloca i64, align 8
  %5 = alloca i64, align 8
  %6 = alloca i64, align 8
  %7 = alloca i32, align 4
  %8 = alloca i32, align 4
  %9 = alloca i64, align 8
  %10 = alloca i32, align 4
  store i64 %0, ptr %4, align 8, !tbaa !35
  store i64 %1, ptr %5, align 8, !tbaa !35
  store i64 %2, ptr %6, align 8, !tbaa !35
  call void @llvm.lifetime.start.p0(i64 4, ptr %7) #27
  call void @llvm.lifetime.start.p0(i64 4, ptr %8) #27
  call void @llvm.lifetime.start.p0(i64 8, ptr %9) #27
  store i64 0, ptr %9, align 8, !tbaa !35
  call void @check_uid_switch()
  %11 = load i64, ptr %5, align 8, !tbaa !35
  %12 = call i32 @obj2uid(i64 noundef %11, ptr noundef %9)
  store i32 %12, ptr %7, align 4, !tbaa !34
  %13 = load i64, ptr %6, align 8, !tbaa !35
  %14 = call i32 @obj2uid(i64 noundef %13, ptr noundef %9)
  store i32 %14, ptr %8, align 4, !tbaa !34
  %15 = load i64, ptr %9, align 8, !tbaa !35
  %16 = icmp ne i64 %15, 0
  br i1 %16, label %17, label %20

17:                                               ; preds = %3
  %18 = load i64, ptr %9, align 8, !tbaa !35
  %19 = call i64 @rb_str_resize(i64 noundef %18, i64 noundef 0)
  br label %21

20:                                               ; preds = %3
  br label %21

21:                                               ; preds = %20, %17
  %22 = load i32, ptr %7, align 4, !tbaa !34
  %23 = load i32, ptr %8, align 4, !tbaa !34
  %24 = call i32 @setreuid(i32 noundef %22, i32 noundef %23) #27
  %25 = icmp ne i32 %24, 0
  br i1 %25, label %26, label %33

26:                                               ; preds = %21
  br label %27

27:                                               ; preds = %26
  call void @llvm.lifetime.start.p0(i64 4, ptr %10) #27
  %28 = call ptr @rb_errno_ptr()
  %29 = load i32, ptr %28, align 4, !tbaa !34
  store i32 %29, ptr %10, align 4, !tbaa !34
  %30 = load i32, ptr %10, align 4, !tbaa !34
  call void @rb_syserr_fail(i32 noundef %30, ptr noundef null) #30
  unreachable

31:                                               ; No predecessors!
  br label %32

32:                                               ; preds = %31
  br label %33

33:                                               ; preds = %32, %21
  call void @llvm.lifetime.end.p0(i64 8, ptr %9) #27
  call void @llvm.lifetime.end.p0(i64 4, ptr %8) #27
  call void @llvm.lifetime.end.p0(i64 4, ptr %7) #27
  ret i64 4
}