; Function Attrs: nounwind sspstrong uwtable
define internal noundef i64 @p_sys_setreuid(i64 %0, i64 noundef %1, i64 noundef %2) #1 {
  %4 = alloca i64, align 8
  call void @llvm.lifetime.start.p0(i64 8, ptr nonnull %4) #27
  store i64 0, ptr %4, align 8, !tbaa !43
  %.b.i = load i1, ptr @under_uid_switch, align 4
  br i1 %.b.i, label %5, label %check_uid_switch.exit

5:                                                ; preds = %3
  %6 = load i64, ptr @rb_eRuntimeError, align 8, !tbaa !43
  tail call void (i64, ptr, ...) @rb_raise(i64 noundef %6, ptr noundef nonnull @.str.228) #29
  unreachable

check_uid_switch.exit:                            ; preds = %3
  %7 = call fastcc i32 @obj2uid(i64 noundef %1, ptr noundef %4)
  %8 = call fastcc i32 @obj2uid(i64 noundef %2, ptr noundef %4)
  %9 = load i64, ptr %4, align 8, !tbaa !43
  %.not = icmp eq i64 %9, 0
  br i1 %.not, label %12, label %10

10:                                               ; preds = %check_uid_switch.exit
  %11 = tail call i64 @rb_str_resize(i64 noundef %9, i64 noundef 0) #27
  br label %12

12:                                               ; preds = %check_uid_switch.exit, %10
  %13 = tail call i32 @setreuid(i32 noundef %7, i32 noundef %8) #27
  %.not5 = icmp eq i32 %13, 0
  br i1 %.not5, label %17, label %14

14:                                               ; preds = %12
  %15 = tail call ptr @rb_errno_ptr() #27
  %16 = load i32, ptr %15, align 4, !tbaa !60
  tail call void @rb_syserr_fail(i32 noundef %16, ptr noundef null) #29
  unreachable

17:                                               ; preds = %12
  call void @llvm.lifetime.end.p0(i64 8, ptr nonnull %4) #27
  ret i64 4
}